target datalayout = "e-m:e-p270:32:32-p271:32:32-p272:64:64-i64:64-i128:128-f80:128-n8:16:32:64-S128"
target triple = "x86_64-pc-linux-gnu"

%class.symbol = type { ptr }
%class.rational = type { %class.mpq }
%class.mpq = type { %class.mpz, %class.mpz }
%class.mpz = type { i32, i8, ptr }
%"class.opt::optsmt" = type { ptr, ptr, ptr, %class.vector, %class.vector, %class.ref_vector, %class.ref_vector.1, %class.svector, %class.symbol, %class.ref, %class.ref, %class.svector.7, %class.ref_vector_core.9 }
%class.vector = type { ptr }
%class.ref_vector = type { %class.ref_vector_core }
%class.ref_vector_core = type { %class.ref_manager_wrapper, %class.ptr_vector }
%class.ref_manager_wrapper = type { ptr }
%class.ptr_vector = type { %class.vector.0 }
%class.vector.0 = type { ptr }
%class.ref_vector.1 = type { %class.ref_vector_core.2 }
%class.ref_vector_core.2 = type { %class.ref_manager_wrapper.3, %class.ptr_vector.4 }
%class.ref_manager_wrapper.3 = type { ptr }
%class.ptr_vector.4 = type { %class.vector.5 }
%class.vector.5 = type { ptr }
%class.svector = type { %class.vector.6 }
%class.vector.6 = type { ptr }
%class.ref = type { ptr }
%class.svector.7 = type { %class.vector.8 }
%class.vector.8 = type { ptr }
%class.ref_vector_core.9 = type { %class.ptr_vector.10 }
%class.ptr_vector.10 = type { %class.vector.11 }
%class.vector.11 = type { ptr }
%class.inf_eps_rational = type { %class.rational, %class.inf_rational }
%class.inf_rational = type { %class.rational, %class.rational }

@_ZN8rational13g_mpq_managerE = external global ptr, align 8

; Function Attrs: inlinehint mustprogress nounwind uwtable
define linkonce_odr hidden noundef zeroext i1 @_ZNK3mpz8is_smallEv(ptr noundef nonnull align 8 dereferenceable(16) %0) #8 comdat align 2 {
  %2 = alloca ptr, align 8
  store ptr %0, ptr %2, align 8, !tbaa !247
  %3 = load ptr, ptr %2, align 8
  %4 = getelementptr inbounds nuw %class.mpz, ptr %3, i32 0, i32 1
  %5 = load i8, ptr %4, align 4
  %6 = and i8 %5, 1
  %7 = zext i8 %6 to i32
  %8 = icmp eq i32 %7, 0
  ret i1 %8
}

; Function Attrs: mustprogress nounwind uwtable
define linkonce_odr hidden void @_ZN3mpz3setEi(ptr noundef nonnull align 8 dereferenceable(16) %0, i32 noundef %1) #4 comdat align 2 {
  %3 = alloca ptr, align 8
  %4 = alloca i32, align 4
  store ptr %0, ptr %3, align 8, !tbaa !247
  store i32 %1, ptr %4, align 4, !tbaa !8
  %5 = load ptr, ptr %3, align 8
  %6 = load i32, ptr %4, align 4, !tbaa !8
  %7 = getelementptr inbounds nuw %class.mpz, ptr %5, i32 0, i32 0
  store i32 %6, ptr %7, align 8, !tbaa !249
  %8 = getelementptr inbounds nuw %class.mpz, ptr %5, i32 0, i32 1
  %9 = load i8, ptr %8, align 4
  %10 = and i8 %9, -2
  %11 = or i8 %10, 0
  store i8 %11, ptr %8, align 4
  ret void
}

; Function Attrs: inlinehint mustprogress nounwind uwtable
define linkonce_odr hidden noundef i32 @_ZNK3mpz5valueEv(ptr noundef nonnull align 8 dereferenceable(16) %0) #8 comdat align 2 {
  %2 = alloca ptr, align 8
  store ptr %0, ptr %2, align 8, !tbaa !247
  %3 = load ptr, ptr %2, align 8
  %4 = getelementptr inbounds nuw %class.mpz, ptr %3, i32 0, i32 0
  %5 = load i32, ptr %4, align 8, !tbaa !249
  ret i32 %5
}

; Function Attrs: mustprogress uwtable
define linkonce_odr hidden noundef zeroext i1 @_ZN11mpz_managerILb1EE8is_smallERK3mpz(ptr noundef nonnull align 8 dereferenceable(16) %0) #6 comdat align 2 {
  %2 = alloca ptr, align 8
  store ptr %0, ptr %2, align 8, !tbaa !247
  %3 = load ptr, ptr %2, align 8, !tbaa !247
  %4 = call noundef zeroext i1 @_ZNK3mpz8is_smallEv(ptr noundef nonnull align 8 dereferenceable(16) %3)
  ret i1 %4
}

; Function Attrs: mustprogress uwtable
define linkonce_odr hidden void @_ZN11mpz_managerILb1EE3setER3mpzRKS1_(ptr noundef nonnull align 8 dereferenceable(600) %0, ptr noundef nonnull align 8 dereferenceable(16) %1, ptr noundef nonnull align 8 dereferenceable(16) %2) #6 comdat align 2 {
  %4 = alloca ptr, align 8
  %5 = alloca ptr, align 8
  %6 = alloca ptr, align 8
  store ptr %0, ptr %4, align 8, !tbaa !253
  store ptr %1, ptr %5, align 8, !tbaa !247
  store ptr %2, ptr %6, align 8, !tbaa !247
  %7 = load ptr, ptr %4, align 8
  %8 = load ptr, ptr %6, align 8, !tbaa !247
  %9 = call noundef zeroext i1 @_ZN11mpz_managerILb1EE8is_smallERK3mpz(ptr noundef nonnull align 8 dereferenceable(16) %8)
  br i1 %9, label %10, label %14

10:                                               ; preds = %3
  %11 = load ptr, ptr %5, align 8, !tbaa !247
  %12 = load ptr, ptr %6, align 8, !tbaa !247
  %13 = call noundef i32 @_ZNK3mpz5valueEv(ptr noundef nonnull align 8 dereferenceable(16) %12)
  call void @_ZN3mpz3setEi(ptr noundef nonnull align 8 dereferenceable(16) %11, i32 noundef %13)
  br label %17

14:                                               ; preds = %3
  %15 = load ptr, ptr %5, align 8, !tbaa !247
  %16 = load ptr, ptr %6, align 8, !tbaa !247
  call void @_ZN11mpz_managerILb1EE7big_setER3mpzRKS1_(ptr noundef nonnull align 8 dereferenceable(600) %7, ptr noundef nonnull align 8 dereferenceable(16) %15, ptr noundef nonnull align 8 dereferenceable(16) %16)
  br label %17

17:                                               ; preds = %14, %10
  ret void
}

; Function Attrs: mustprogress uwtable
define linkonce_odr hidden void @_ZN11mpq_managerILb1EE3setER3mpzRKS1_(ptr noundef nonnull align 8 dereferenceable(728) %0, ptr noundef nonnull align 8 dereferenceable(16) %1, ptr noundef nonnull align 8 dereferenceable(16) %2) #6 comdat align 2 {
  %4 = alloca ptr, align 8
  %5 = alloca ptr, align 8
  %6 = alloca ptr, align 8
  store ptr %0, ptr %4, align 8, !tbaa !171
  store ptr %1, ptr %5, align 8, !tbaa !247
  store ptr %2, ptr %6, align 8, !tbaa !247
  %7 = load ptr, ptr %4, align 8
  %8 = load ptr, ptr %5, align 8, !tbaa !247
  %9 = load ptr, ptr %6, align 8, !tbaa !247
  call void @_ZN11mpz_managerILb1EE3setER3mpzRKS1_(ptr noundef nonnull align 8 dereferenceable(600) %7, ptr noundef nonnull align 8 dereferenceable(16) %8, ptr noundef nonnull align 8 dereferenceable(16) %9)
  ret void
}

; Function Attrs: mustprogress nounwind uwtable
define linkonce_odr hidden void @_ZN3mpzC2Ei(ptr noundef nonnull align 8 dereferenceable(16) %0, i32 noundef %1) unnamed_addr #4 comdat align 2 {
  %3 = alloca ptr, align 8
  %4 = alloca i32, align 4
  store ptr %0, ptr %3, align 8, !tbaa !247
  store i32 %1, ptr %4, align 4, !tbaa !8
  %5 = load ptr, ptr %3, align 8
  %6 = getelementptr inbounds nuw %class.mpz, ptr %5, i32 0, i32 0
  %7 = load i32, ptr %4, align 4, !tbaa !8
  store i32 %7, ptr %6, align 8, !tbaa !249
  %8 = getelementptr inbounds nuw %class.mpz, ptr %5, i32 0, i32 1
  %9 = load i8, ptr %8, align 4
  %10 = and i8 %9, -2
  %11 = or i8 %10, 0
  store i8 %11, ptr %8, align 4
  %12 = getelementptr inbounds nuw %class.mpz, ptr %5, i32 0, i32 1
  %13 = load i8, ptr %12, align 4
  %14 = and i8 %13, -3
  %15 = or i8 %14, 0
  store i8 %15, ptr %12, align 4
  %16 = getelementptr inbounds nuw %class.mpz, ptr %5, i32 0, i32 2
  store ptr null, ptr %16, align 8, !tbaa !252
  ret void
}

; Function Attrs: mustprogress nounwind uwtable
define linkonce_odr hidden void @_ZN3mpzC2Ev(ptr noundef nonnull align 8 dereferenceable(16) %0) unnamed_addr #4 comdat align 2 {
  %2 = alloca ptr, align 8
  store ptr %0, ptr %2, align 8, !tbaa !247
  %3 = load ptr, ptr %2, align 8
  %4 = getelementptr inbounds nuw %class.mpz, ptr %3, i32 0, i32 0
  store i32 0, ptr %4, align 8, !tbaa !249
  %5 = getelementptr inbounds nuw %class.mpz, ptr %3, i32 0, i32 1
  %6 = load i8, ptr %5, align 4
  %7 = and i8 %6, -2
  %8 = or i8 %7, 0
  store i8 %8, ptr %5, align 4
  %9 = getelementptr inbounds nuw %class.mpz, ptr %3, i32 0, i32 1
  %10 = load i8, ptr %9, align 4
  %11 = and i8 %10, -3
  %12 = or i8 %11, 0
  store i8 %12, ptr %9, align 4
  %13 = getelementptr inbounds nuw %class.mpz, ptr %3, i32 0, i32 2
  store ptr null, ptr %13, align 8, !tbaa !252
  ret void
}

; Function Attrs: mustprogress uwtable
define linkonce_odr hidden void @_ZN11mpq_managerILb1EE3setER3mpqRKS1_(ptr noundef nonnull align 8 dereferenceable(728) %0, ptr noundef nonnull align 8 dereferenceable(32) %1, ptr noundef nonnull align 8 dereferenceable(32) %2) #6 comdat align 2 {
  %4 = alloca ptr, align 8
  %5 = alloca ptr, align 8
  %6 = alloca ptr, align 8
  store ptr %0, ptr %4, align 8, !tbaa !171
  store ptr %1, ptr %5, align 8, !tbaa !245
  store ptr %2, ptr %6, align 8, !tbaa !245
  %7 = load ptr, ptr %4, align 8
  %8 = load ptr, ptr %5, align 8, !tbaa !245
  %9 = getelementptr inbounds nuw %class.mpq, ptr %8, i32 0, i32 0
  %10 = load ptr, ptr %6, align 8, !tbaa !245
  %11 = getelementptr inbounds nuw %class.mpq, ptr %10, i32 0, i32 0
  call void @_ZN11mpq_managerILb1EE3setER3mpzRKS1_(ptr noundef nonnull align 8 dereferenceable(728) %7, ptr noundef nonnull align 8 dereferenceable(16) %9, ptr noundef nonnull align 8 dereferenceable(16) %11)
  %12 = load ptr, ptr %5, align 8, !tbaa !245
  %13 = getelementptr inbounds nuw %class.mpq, ptr %12, i32 0, i32 1
  %14 = load ptr, ptr %6, align 8, !tbaa !245
  %15 = getelementptr inbounds nuw %class.mpq, ptr %14, i32 0, i32 1
  call void @_ZN11mpq_managerILb1EE3setER3mpzRKS1_(ptr noundef nonnull align 8 dereferenceable(728) %7, ptr noundef nonnull align 8 dereferenceable(16) %13, ptr noundef nonnull align 8 dereferenceable(16) %15)
  ret void
}

; Function Attrs: mustprogress nounwind uwtable
define linkonce_odr hidden noundef nonnull align 8 dereferenceable(728) ptr @_ZN8rational1mEv() #4 comdat align 2 {
  %1 = load ptr, ptr @_ZN8rational13g_mpq_managerE, align 8, !tbaa !171
  ret ptr %1
}

; Function Attrs: mustprogress uwtable
define linkonce_odr hidden void @_ZN3mpqC2Ev(ptr noundef nonnull align 8 dereferenceable(32) %0) unnamed_addr #6 comdat align 2 {
  %2 = alloca ptr, align 8
  store ptr %0, ptr %2, align 8, !tbaa !245
  %3 = load ptr, ptr %2, align 8
  %4 = getelementptr inbounds nuw %class.mpq, ptr %3, i32 0, i32 0
  call void @_ZN3mpzC2Ev(ptr noundef nonnull align 8 dereferenceable(16) %4)
  %5 = getelementptr inbounds nuw %class.mpq, ptr %3, i32 0, i32 1
  call void @_ZN3mpzC2Ei(ptr noundef nonnull align 8 dereferenceable(16) %5, i32 noundef 1)
  ret void
}

; Function Attrs: mustprogress uwtable
define linkonce_odr hidden void @_ZN8rationalC2ERKS_(ptr noundef nonnull align 8 dereferenceable(32) %0, ptr noundef nonnull align 8 dereferenceable(32) %1) unnamed_addr #6 comdat align 2 {
  %3 = alloca ptr, align 8
  %4 = alloca ptr, align 8
  store ptr %0, ptr %3, align 8, !tbaa !169
  store ptr %1, ptr %4, align 8, !tbaa !169
  %5 = load ptr, ptr %3, align 8
  %6 = getelementptr inbounds nuw %class.rational, ptr %5, i32 0, i32 0
  call void @_ZN3mpqC2Ev(ptr noundef nonnull align 8 dereferenceable(32) %6)
  %7 = call noundef nonnull align 8 dereferenceable(728) ptr @_ZN8rational1mEv()
  %8 = getelementptr inbounds nuw %class.rational, ptr %5, i32 0, i32 0
  %9 = load ptr, ptr %4, align 8, !tbaa !169
  %10 = getelementptr inbounds nuw %class.rational, ptr %9, i32 0, i32 0
  call void @_ZN11mpq_managerILb1EE3setER3mpqRKS1_(ptr noundef nonnull align 8 dereferenceable(728) %7, ptr noundef nonnull align 8 dereferenceable(32) %8, ptr noundef nonnull align 8 dereferenceable(32) %10)
  ret void
}

; Function Attrs: mustprogress uwtable
define linkonce_odr hidden void @_ZN12inf_rationalC2Ev(ptr noundef nonnull align 8 dereferenceable(64) %0) unnamed_addr #6 comdat align 2 personality ptr @__gxx_personality_v0 {
  %2 = alloca ptr, align 8
  %3 = alloca ptr, align 8
  %4 = alloca i32, align 4
  store ptr %0, ptr %2, align 8, !tbaa !173
  %5 = load ptr, ptr %2, align 8
  %6 = getelementptr inbounds nuw %class.inf_rational, ptr %5, i32 0, i32 0
  call void @_ZN8rationalC2Ev(ptr noundef nonnull align 8 dereferenceable(32) %6)
  %7 = getelementptr inbounds nuw %class.inf_rational, ptr %5, i32 0, i32 1
  invoke void @_ZN8rationalC2Ev(ptr noundef nonnull align 8 dereferenceable(32) %7)
          to label %8 unwind label %9

8:                                                ; preds = %1
  ret void

9:                                                ; preds = %1
  %10 = landingpad { ptr, i32 }
          cleanup
  %11 = extractvalue { ptr, i32 } %10, 0
  store ptr %11, ptr %3, align 8
  %12 = extractvalue { ptr, i32 } %10, 1
  store i32 %12, ptr %4, align 4
  call void @_ZN8rationalD2Ev(ptr noundef nonnull align 8 dereferenceable(32) %6) #3
  br label %13

13:                                               ; preds = %9
  %14 = load ptr, ptr %3, align 8
  %15 = load i32, ptr %4, align 4
  %16 = insertvalue { ptr, i32 } poison, ptr %14, 0
  %17 = insertvalue { ptr, i32 } %16, i32 %15, 1
  resume { ptr, i32 } %17
}

; Function Attrs: mustprogress uwtable
define linkonce_odr hidden void @_ZN8rationalC2Ev(ptr noundef nonnull align 8 dereferenceable(32) %0) unnamed_addr #6 comdat align 2 {
  %2 = alloca ptr, align 8
  store ptr %0, ptr %2, align 8, !tbaa !169
  %3 = load ptr, ptr %2, align 8
  %4 = getelementptr inbounds nuw %class.rational, ptr %3, i32 0, i32 0
  call void @_ZN3mpqC2Ev(ptr noundef nonnull align 8 dereferenceable(32) %4)
  ret void
}

; Function Attrs: inlinehint mustprogress uwtable
define linkonce_odr hidden void @_ZN16inf_eps_rationalI12inf_rationalEC2ERKS1_(ptr noundef nonnull align 8 dereferenceable(96) %0, ptr noundef nonnull align 8 dereferenceable(96) %1) unnamed_addr #7 comdat align 2 personality ptr @__gxx_personality_v0 {
  %3 = alloca ptr, align 8
  %4 = alloca ptr, align 8
  %5 = alloca ptr, align 8
  %6 = alloca i32, align 4
  store ptr %0, ptr %3, align 8, !tbaa !74
  store ptr %1, ptr %4, align 8, !tbaa !74
  %7 = load ptr, ptr %3, align 8
  %8 = getelementptr inbounds nuw %class.inf_eps_rational, ptr %7, i32 0, i32 0
  %9 = load ptr, ptr %4, align 8, !tbaa !74
  %10 = getelementptr inbounds nuw %class.inf_eps_rational, ptr %9, i32 0, i32 0
  call void @_ZN8rationalC2ERKS_(ptr noundef nonnull align 8 dereferenceable(32) %8, ptr noundef nonnull align 8 dereferenceable(32) %10)
  %11 = getelementptr inbounds nuw %class.inf_eps_rational, ptr %7, i32 0, i32 1
  %12 = load ptr, ptr %4, align 8, !tbaa !74
  %13 = getelementptr inbounds nuw %class.inf_eps_rational, ptr %12, i32 0, i32 1
  invoke void @_ZN12inf_rationalC2ERKS_(ptr noundef nonnull align 8 dereferenceable(64) %11, ptr noundef nonnull align 8 dereferenceable(64) %13)
          to label %14 unwind label %15

14:                                               ; preds = %2
  ret void

15:                                               ; preds = %2
  %16 = landingpad { ptr, i32 }
          cleanup
  %17 = extractvalue { ptr, i32 } %16, 0
  store ptr %17, ptr %5, align 8
  %18 = extractvalue { ptr, i32 } %16, 1
  store i32 %18, ptr %6, align 4
  call void @_ZN8rationalD2Ev(ptr noundef nonnull align 8 dereferenceable(32) %8) #3
  br label %19

19:                                               ; preds = %15
  %20 = load ptr, ptr %5, align 8
  %21 = load i32, ptr %6, align 4
  %22 = insertvalue { ptr, i32 } poison, ptr %20, 0
  %23 = insertvalue { ptr, i32 } %22, i32 %21, 1
  resume { ptr, i32 } %23
}

; Function Attrs: mustprogress nounwind uwtable
define linkonce_odr hidden noundef nonnull align 8 dereferenceable(96) ptr @_ZNK6vectorI16inf_eps_rationalI12inf_rationalELb1EjEixEj(ptr noundef nonnull align 8 dereferenceable(8) %0, i32 noundef %1) #4 comdat align 2 {
  %3 = alloca ptr, align 8
  %4 = alloca i32, align 4
  store ptr %0, ptr %3, align 8, !tbaa !30
  store i32 %1, ptr %4, align 4, !tbaa !8
  %5 = load ptr, ptr %3, align 8
  %6 = getelementptr inbounds nuw %class.vector, ptr %5, i32 0, i32 0
  %7 = load ptr, ptr %6, align 8, !tbaa !73
  %8 = load i32, ptr %4, align 4, !tbaa !8
  %9 = zext i32 %8 to i64
  %10 = getelementptr inbounds nuw %class.inf_eps_rational, ptr %7, i64 %9
  ret ptr %10
}

; Function Attrs: mustprogress uwtable
define linkonce_odr hidden void @_ZN16inf_eps_rationalI12inf_rationalEC2Ev(ptr noundef nonnull align 8 dereferenceable(96) %0) unnamed_addr #6 comdat align 2 personality ptr @__gxx_personality_v0 {
  %2 = alloca ptr, align 8
  %3 = alloca ptr, align 8
  %4 = alloca i32, align 4
  store ptr %0, ptr %2, align 8, !tbaa !74
  %5 = load ptr, ptr %2, align 8
  %6 = getelementptr inbounds nuw %class.inf_eps_rational, ptr %5, i32 0, i32 0
  call void @_ZN8rationalC2Ev(ptr noundef nonnull align 8 dereferenceable(32) %6)
  %7 = getelementptr inbounds nuw %class.inf_eps_rational, ptr %5, i32 0, i32 1
  invoke void @_ZN12inf_rationalC2Ev(ptr noundef nonnull align 8 dereferenceable(64) %7)
          to label %8 unwind label %9

8:                                                ; preds = %1
  ret void

9:                                                ; preds = %1
  %10 = landingpad { ptr, i32 }
          cleanup
  %11 = extractvalue { ptr, i32 } %10, 0
  store ptr %11, ptr %3, align 8
  %12 = extractvalue { ptr, i32 } %10, 1
  store i32 %12, ptr %4, align 4
  call void @_ZN8rationalD2Ev(ptr noundef nonnull align 8 dereferenceable(32) %6) #3
  br label %13

13:                                               ; preds = %9
  %14 = load ptr, ptr %3, align 8
  %15 = load i32, ptr %4, align 4
  %16 = insertvalue { ptr, i32 } poison, ptr %14, 0
  %17 = insertvalue { ptr, i32 } %16, i32 %15, 1
  resume { ptr, i32 } %17
}

; Function Attrs: mustprogress nounwind uwtable
define linkonce_odr hidden noundef i32 @_ZNK6vectorI16inf_eps_rationalI12inf_rationalELb1EjE4sizeEv(ptr noundef nonnull align 8 dereferenceable(8) %0) #4 comdat align 2 {
  %2 = alloca i32, align 4
  %3 = alloca ptr, align 8
  store ptr %0, ptr %3, align 8, !tbaa !30
  %4 = load ptr, ptr %3, align 8
  %5 = getelementptr inbounds nuw %class.vector, ptr %4, i32 0, i32 0
  %6 = load ptr, ptr %5, align 8, !tbaa !73
  %7 = icmp eq ptr %6, null
  br i1 %7, label %8, label %9

8:                                                ; preds = %1
  store i32 0, ptr %2, align 4
  br label %14

9:                                                ; preds = %1
  %10 = getelementptr inbounds nuw %class.vector, ptr %4, i32 0, i32 0
  %11 = load ptr, ptr %10, align 8, !tbaa !73
  %12 = getelementptr inbounds i32, ptr %11, i64 -1
  %13 = load i32, ptr %12, align 4, !tbaa !8
  store i32 %13, ptr %2, align 4
  br label %14

14:                                               ; preds = %9, %8
  %15 = load i32, ptr %2, align 4
  ret i32 %15
}

; Function Attrs: mustprogress uwtable
define hidden void @_ZNK3opt6optsmt9get_upperEj(ptr dead_on_unwind noalias writable sret(%class.inf_eps_rational) align 8 %0, ptr noundef nonnull align 8 dereferenceable(120) %1, i32 noundef %2) #6 align 2 {
  %4 = alloca ptr, align 8
  %5 = alloca ptr, align 8
  %6 = alloca i32, align 4
  store ptr %0, ptr %4, align 8
  store ptr %1, ptr %5, align 8, !tbaa !28
  store i32 %2, ptr %6, align 4, !tbaa !8
  %7 = load ptr, ptr %5, align 8
  %8 = load i32, ptr %6, align 4, !tbaa !8
  %9 = getelementptr inbounds nuw %"class.opt::optsmt", ptr %7, i32 0, i32 4
  %10 = call noundef i32 @_ZNK6vectorI16inf_eps_rationalI12inf_rationalELb1EjE4sizeEv(ptr noundef nonnull align 8 dereferenceable(8) %9)
  %11 = icmp uge i32 %8, %10
  br i1 %11, label %12, label %13

12:                                               ; preds = %3
  call void @llvm.memset.p0.i64(ptr align 8 %0, i8 0, i64 96, i1 false)
  call void @_ZN16inf_eps_rationalI12inf_rationalEC2Ev(ptr noundef nonnull align 8 dereferenceable(96) %0)
  br label %17

13:                                               ; preds = %3
  %14 = getelementptr inbounds nuw %"class.opt::optsmt", ptr %7, i32 0, i32 4
  %15 = load i32, ptr %6, align 4, !tbaa !8
  %16 = call noundef nonnull align 8 dereferenceable(96) ptr @_ZNK6vectorI16inf_eps_rationalI12inf_rationalELb1EjEixEj(ptr noundef nonnull align 8 dereferenceable(8) %14, i32 noundef %15)
  call void @_ZN16inf_eps_rationalI12inf_rationalEC2ERKS1_(ptr noundef nonnull align 8 dereferenceable(96) %0, ptr noundef nonnull align 8 dereferenceable(96) %16)
  br label %17

17:                                               ; preds = %13, %12
  ret void
}